target datalayout = "e-m:e-p270:32:32-p271:32:32-p272:64:64-i64:64-i128:128-f80:128-n8:16:32:64-S128"
target triple = "x86_64-pc-linux-gnu"

@.str.27 = private unnamed_addr constant [4 x i8] c"RC4\00", align 1
@.str.28 = private unnamed_addr constant [8 x i8] c"DES-CBC\00", align 1
@.str.29 = private unnamed_addr constant [13 x i8] c"DES-EDE3-CBC\00", align 1
@.str.30 = private unnamed_addr constant [12 x i8] c"AES-128-CBC\00", align 1
@.str.31 = private unnamed_addr constant [12 x i8] c"AES-192-CBC\00", align 1
@.str.32 = private unnamed_addr constant [12 x i8] c"AES-256-CBC\00", align 1

; Function Attrs: nounwind uwtable
define internal ptr @cipher_by_name(ptr noundef %0) #0 {
  %2 = alloca ptr, align 8
  %3 = alloca ptr, align 8
  store ptr %0, ptr %3, align 8, !tbaa !6
  %4 = load ptr, ptr %3, align 8, !tbaa !6
  %5 = call i32 @strcmp(ptr noundef %4, ptr noundef @.str.27) #8
  %6 = icmp eq i32 0, %5
  br i1 %6, label %7, label %9

7:                                                ; preds = %1
  %8 = call ptr @EVP_rc4()
  store ptr %8, ptr %2, align 8
  br label %40

9:                                                ; preds = %1
  %10 = load ptr, ptr %3, align 8, !tbaa !6
  %11 = call i32 @strcmp(ptr noundef %10, ptr noundef @.str.28) #8
  %12 = icmp eq i32 0, %11
  br i1 %12, label %13, label %15

13:                                               ; preds = %9
  %14 = call ptr @EVP_des_cbc()
  store ptr %14, ptr %2, align 8
  br label %40

15:                                               ; preds = %9
  %16 = load ptr, ptr %3, align 8, !tbaa !6
  %17 = call i32 @strcmp(ptr noundef %16, ptr noundef @.str.29) #8
  %18 = icmp eq i32 0, %17
  br i1 %18, label %19, label %21

19:                                               ; preds = %15
  %20 = call ptr @EVP_des_ede3_cbc()
  store ptr %20, ptr %2, align 8
  br label %40

21:                                               ; preds = %15
  %22 = load ptr, ptr %3, align 8, !tbaa !6
  %23 = call i32 @strcmp(ptr noundef %22, ptr noundef @.str.30) #8
  %24 = icmp eq i32 0, %23
  br i1 %24, label %25, label %27

25:                                               ; preds = %21
  %26 = call ptr @EVP_aes_128_cbc()
  store ptr %26, ptr %2, align 8
  br label %40

27:                                               ; preds = %21
  %28 = load ptr, ptr %3, align 8, !tbaa !6
  %29 = call i32 @strcmp(ptr noundef %28, ptr noundef @.str.31) #8
  %30 = icmp eq i32 0, %29
  br i1 %30, label %31, label %33

31:                                               ; preds = %27
  %32 = call ptr @EVP_aes_192_cbc()
  store ptr %32, ptr %2, align 8
  br label %40

33:                                               ; preds = %27
  %34 = load ptr, ptr %3, align 8, !tbaa !6
  %35 = call i32 @strcmp(ptr noundef %34, ptr noundef @.str.32) #8
  %36 = icmp eq i32 0, %35
  br i1 %36, label %37, label %39

37:                                               ; preds = %33
  %38 = call ptr @EVP_aes_256_cbc()
  store ptr %38, ptr %2, align 8
  br label %40

39:                                               ; preds = %33
  store ptr null, ptr %2, align 8
  br label %40

40:                                               ; preds = %39, %37, %31, %25, %19, %13, %7
  %41 = load ptr, ptr %2, align 8
  ret ptr %41
}