; Function Attrs: nounwind uwtable
define internal fastcc ptr @cipher_by_name(ptr noundef readonly captures(none) %0) unnamed_addr #0 {
  %2 = tail call i32 @strcmp(ptr noundef nonnull dereferenceable(1) %0, ptr noundef nonnull dereferenceable(4) @.str.27) #13
  %3 = icmp eq i32 %2, 0
  br i1 %3, label %4, label %6

4:                                                ; preds = %1
  %5 = tail call ptr @EVP_rc4() #12
  br label %31

6:                                                ; preds = %1
  %7 = tail call i32 @strcmp(ptr noundef nonnull dereferenceable(1) %0, ptr noundef nonnull dereferenceable(8) @.str.28) #13
  %8 = icmp eq i32 %7, 0
  br i1 %8, label %9, label %11

9:                                                ; preds = %6
  %10 = tail call ptr @EVP_des_cbc() #12
  br label %31

11:                                               ; preds = %6
  %12 = tail call i32 @strcmp(ptr noundef nonnull dereferenceable(1) %0, ptr noundef nonnull dereferenceable(13) @.str.29) #13
  %13 = icmp eq i32 %12, 0
  br i1 %13, label %14, label %16

14:                                               ; preds = %11
  %15 = tail call ptr @EVP_des_ede3_cbc() #12
  br label %31

16:                                               ; preds = %11
  %17 = tail call i32 @strcmp(ptr noundef nonnull dereferenceable(1) %0, ptr noundef nonnull dereferenceable(12) @.str.30) #13
  %18 = icmp eq i32 %17, 0
  br i1 %18, label %19, label %21

19:                                               ; preds = %16
  %20 = tail call ptr @EVP_aes_128_cbc() #12
  br label %31

21:                                               ; preds = %16
  %22 = tail call i32 @strcmp(ptr noundef nonnull dereferenceable(1) %0, ptr noundef nonnull dereferenceable(12) @.str.31) #13
  %23 = icmp eq i32 %22, 0
  br i1 %23, label %24, label %26

24:                                               ; preds = %21
  %25 = tail call ptr @EVP_aes_192_cbc() #12
  br label %31

26:                                               ; preds = %21
  %27 = tail call i32 @strcmp(ptr noundef nonnull dereferenceable(1) %0, ptr noundef nonnull dereferenceable(12) @.str.32) #13
  %28 = icmp eq i32 %27, 0
  br i1 %28, label %29, label %31

29:                                               ; preds = %26
  %30 = tail call ptr @EVP_aes_256_cbc() #12
  br label %31

31:                                               ; preds = %26, %29, %24, %19, %14, %9, %4
  %.0 = phi ptr [ %5, %4 ], [ %10, %9 ], [ %15, %14 ], [ %20, %19 ], [ %25, %24 ], [ %30, %29 ], [ null, %26 ]
  ret ptr %.0
}